target datalayout = "e-m:e-p270:32:32-p271:32:32-p272:64:64-i64:64-i128:128-f80:128-n8:16:32:64-S128"
target triple = "x86_64-pc-linux-gnu"

%struct.tm = type { i32, i32, i32, i32, i32, i32, i32, i32, i32, i64, ptr }

@.str.32 = private unnamed_addr constant [22 x i8] c"#EXT-X-DISCONTINUITY\0A\00", align 1
@.str.33 = private unnamed_addr constant [14 x i8] c"#EXTINF:%ld,\0A\00", align 1
@.str.34 = private unnamed_addr constant [13 x i8] c"#EXTINF:%f,\0A\00", align 1
@.str.35 = private unnamed_addr constant [26 x i8] c"#EXT-X-BYTERANGE:%ld@%ld\0A\00", align 1
@.str.36 = private unnamed_addr constant [18 x i8] c"%Y-%m-%dT%H:%M:%S\00", align 1
@.str.37 = private unnamed_addr constant [43 x i8] c"strftime error in ff_hls_write_file_entry\0A\00", align 1
@.str.38 = private unnamed_addr constant [3 x i8] c"%z\00", align 1
@.str.39 = private unnamed_addr constant [11 x i8] c"%c%02d%02d\00", align 1
@.str.40 = private unnamed_addr constant [36 x i8] c"#EXT-X-PROGRAM-DATE-TIME:%s.%03d%s\0A\00", align 1
@.str.41 = private unnamed_addr constant [3 x i8] c"%s\00", align 1
@.str.42 = private unnamed_addr constant [4 x i8] c"%s\0A\00", align 1

; Function Attrs: alwaysinline nounwind willreturn memory(none) uwtable
define internal i32 @av_clip_c(i32 noundef %0, i32 noundef %1, i32 noundef %2) #4 {
  %4 = alloca i32, align 4
  %5 = alloca i32, align 4
  %6 = alloca i32, align 4
  %7 = alloca i32, align 4
  store i32 %0, ptr %5, align 4, !tbaa !9
  store i32 %1, ptr %6, align 4, !tbaa !9
  store i32 %2, ptr %7, align 4, !tbaa !9
  %8 = load i32, ptr %5, align 4, !tbaa !9
  %9 = load i32, ptr %6, align 4, !tbaa !9
  %10 = icmp slt i32 %8, %9
  br i1 %10, label %11, label %13

11:                                               ; preds = %3
  %12 = load i32, ptr %6, align 4, !tbaa !9
  store i32 %12, ptr %4, align 4
  br label %21

13:                                               ; preds = %3
  %14 = load i32, ptr %5, align 4, !tbaa !9
  %15 = load i32, ptr %7, align 4, !tbaa !9
  %16 = icmp sgt i32 %14, %15
  br i1 %16, label %17, label %19

17:                                               ; preds = %13
  %18 = load i32, ptr %7, align 4, !tbaa !9
  store i32 %18, ptr %4, align 4
  br label %21

19:                                               ; preds = %13
  %20 = load i32, ptr %5, align 4, !tbaa !9
  store i32 %20, ptr %4, align 4
  br label %21

21:                                               ; preds = %19, %17, %11
  %22 = load i32, ptr %4, align 4
  ret i32 %22
}

; Function Attrs: nounwind uwtable
define i32 @ff_hls_write_file_entry(ptr noundef %0, i32 noundef %1, i32 noundef %2, double noundef %3, i32 noundef %4, i64 noundef %5, i64 noundef %6, ptr noundef %7, ptr noundef %8, ptr noundef %9, i64 noundef %10, i64 noundef %11, i32 noundef %12) #0 {
  %14 = alloca i32, align 4
  %15 = alloca ptr, align 8
  %16 = alloca i32, align 4
  %17 = alloca i32, align 4
  %18 = alloca double, align 8
  %19 = alloca i32, align 4
  %20 = alloca i64, align 8
  %21 = alloca i64, align 8
  %22 = alloca ptr, align 8
  %23 = alloca ptr, align 8
  %24 = alloca ptr, align 8
  %25 = alloca i64, align 8
  %26 = alloca i64, align 8
  %27 = alloca i32, align 4
  %28 = alloca i64, align 8
  %29 = alloca i64, align 8
  %30 = alloca i32, align 4
  %31 = alloca ptr, align 8
  %32 = alloca %struct.tm, align 8
  %33 = alloca [128 x i8], align 16
  %34 = alloca [128 x i8], align 16
  %35 = alloca i32, align 4
  %36 = alloca i32, align 4
  %37 = alloca i32, align 4
  store ptr %0, ptr %15, align 8, !tbaa !4
  store i32 %1, ptr %16, align 4, !tbaa !9
  store i32 %2, ptr %17, align 4, !tbaa !9
  store double %3, ptr %18, align 8, !tbaa !31
  store i32 %4, ptr %19, align 4, !tbaa !9
  store i64 %5, ptr %20, align 8, !tbaa !30
  store i64 %6, ptr %21, align 8, !tbaa !30
  store ptr %7, ptr %22, align 8, !tbaa !11
  store ptr %8, ptr %23, align 8, !tbaa !11
  store ptr %9, ptr %24, align 8, !tbaa !33
  store i64 %10, ptr %25, align 8, !tbaa !30
  store i64 %11, ptr %26, align 8, !tbaa !30
  store i32 %12, ptr %27, align 4, !tbaa !9
  %38 = load ptr, ptr %15, align 8, !tbaa !4
  %39 = icmp ne ptr %38, null
  br i1 %39, label %40, label %43

40:                                               ; preds = %13
  %41 = load ptr, ptr %23, align 8, !tbaa !11
  %42 = icmp ne ptr %41, null
  br i1 %42, label %44, label %43

43:                                               ; preds = %40, %13
  store i32 -22, ptr %14, align 4
  br label %183

44:                                               ; preds = %40
  %45 = load i32, ptr %16, align 4, !tbaa !9
  %46 = icmp ne i32 %45, 0
  br i1 %46, label %47, label %50

47:                                               ; preds = %44
  %48 = load ptr, ptr %15, align 8, !tbaa !4
  %49 = call i32 (ptr, ptr, ...) @avio_printf(ptr noundef %48, ptr noundef @.str.32)
  br label %50

50:                                               ; preds = %47, %44
  %51 = load i32, ptr %19, align 4, !tbaa !9
  %52 = icmp ne i32 %51, 0
  br i1 %52, label %53, label %58

53:                                               ; preds = %50
  %54 = load ptr, ptr %15, align 8, !tbaa !4
  %55 = load double, ptr %18, align 8, !tbaa !31
  %56 = call i64 @llvm.lrint.i64.f64(double %55)
  %57 = call i32 (ptr, ptr, ...) @avio_printf(ptr noundef %54, ptr noundef @.str.33, i64 noundef %56)
  br label %62

58:                                               ; preds = %50
  %59 = load ptr, ptr %15, align 8, !tbaa !4
  %60 = load double, ptr %18, align 8, !tbaa !31
  %61 = call i32 (ptr, ptr, ...) @avio_printf(ptr noundef %59, ptr noundef @.str.34, double noundef %60)
  br label %62

62:                                               ; preds = %58, %53
  %63 = load i32, ptr %17, align 4, !tbaa !9
  %64 = icmp ne i32 %63, 0
  br i1 %64, label %65, label %84

65:                                               ; preds = %62
  %66 = load ptr, ptr %15, align 8, !tbaa !4
  %67 = load i32, ptr %27, align 4, !tbaa !9
  %68 = icmp ne i32 %67, 0
  br i1 %68, label %69, label %71

69:                                               ; preds = %65
  %70 = load i64, ptr %25, align 8, !tbaa !30
  br label %73

71:                                               ; preds = %65
  %72 = load i64, ptr %20, align 8, !tbaa !30
  br label %73

73:                                               ; preds = %71, %69
  %74 = phi i64 [ %70, %69 ], [ %72, %71 ]
  %75 = load i32, ptr %27, align 4, !tbaa !9
  %76 = icmp ne i32 %75, 0
  br i1 %76, label %77, label %79

77:                                               ; preds = %73
  %78 = load i64, ptr %26, align 8, !tbaa !30
  br label %81

79:                                               ; preds = %73
  %80 = load i64, ptr %21, align 8, !tbaa !30
  br label %81

81:                                               ; preds = %79, %77
  %82 = phi i64 [ %78, %77 ], [ %80, %79 ]
  %83 = call i32 (ptr, ptr, ...) @avio_printf(ptr noundef %66, ptr noundef @.str.35, i64 noundef %74, i64 noundef %82)
  br label %84

84:                                               ; preds = %81, %62
  %85 = load ptr, ptr %24, align 8, !tbaa !33
  %86 = icmp ne ptr %85, null
  br i1 %86, label %87, label %172

87:                                               ; preds = %84
  call void @llvm.lifetime.start.p0(i64 8, ptr %28) #6
  call void @llvm.lifetime.start.p0(i64 8, ptr %29) #6
  call void @llvm.lifetime.start.p0(i64 4, ptr %30) #6
  call void @llvm.lifetime.start.p0(i64 8, ptr %31) #6
  call void @llvm.lifetime.start.p0(i64 56, ptr %32) #6
  call void @llvm.lifetime.start.p0(i64 128, ptr %33) #6
  call void @llvm.lifetime.start.p0(i64 128, ptr %34) #6
  %88 = load ptr, ptr %24, align 8, !tbaa !33
  %89 = load double, ptr %88, align 8, !tbaa !31
  %90 = fptosi double %89 to i64
  store i64 %90, ptr %28, align 8, !tbaa !30
  %91 = load ptr, ptr %24, align 8, !tbaa !33
  %92 = load double, ptr %91, align 8, !tbaa !31
  %93 = load i64, ptr %28, align 8, !tbaa !30
  %94 = sitofp i64 %93 to double
  %95 = fsub nsz double %92, %94
  %96 = fmul nsz double 1.000000e+03, %95
  %97 = call i64 @llvm.lrint.i64.f64(double %96)
  %98 = trunc i64 %97 to i32
  %99 = call i32 @av_clip_c(i32 noundef %98, i32 noundef 0, i32 noundef 999) #7
  store i32 %99, ptr %30, align 4, !tbaa !9
  %100 = call ptr @localtime_r(ptr noundef %28, ptr noundef %32) #6
  store ptr %100, ptr %31, align 8, !tbaa !35
  %101 = getelementptr inbounds [128 x i8], ptr %33, i64 0, i64 0
  %102 = load ptr, ptr %31, align 8, !tbaa !35
  %103 = call i64 @strftime(ptr noundef %101, i64 noundef 128, ptr noundef @.str.36, ptr noundef %102) #6
  %104 = icmp ne i64 %103, 0
  br i1 %104, label %106, label %105

105:                                              ; preds = %87
  call void (ptr, i32, ptr, ...) @av_log(ptr noundef null, i32 noundef 48, ptr noundef @.str.37)
  store i32 -1313558101, ptr %14, align 4
  store i32 1, ptr %35, align 4
  br label %169

106:                                              ; preds = %87
  %107 = getelementptr inbounds [128 x i8], ptr %34, i64 0, i64 0
  %108 = load ptr, ptr %31, align 8, !tbaa !35
  %109 = call i64 @strftime(ptr noundef %107, i64 noundef 128, ptr noundef @.str.38, ptr noundef %108) #6
  %110 = icmp ne i64 %109, 0
  br i1 %110, label %111, label %121

111:                                              ; preds = %106
  %112 = getelementptr inbounds [128 x i8], ptr %34, i64 0, i64 1
  %113 = load i8, ptr %112, align 1, !tbaa !29
  %114 = sext i8 %113 to i32
  %115 = icmp slt i32 %114, 48
  br i1 %115, label %121, label %116

116:                                              ; preds = %111
  %117 = getelementptr inbounds [128 x i8], ptr %34, i64 0, i64 1
  %118 = load i8, ptr %117, align 1, !tbaa !29
  %119 = sext i8 %118 to i32
  %120 = icmp sgt i32 %119, 50
  br i1 %120, label %121, label %159

121:                                              ; preds = %116, %111, %106
  call void @llvm.lifetime.start.p0(i64 4, ptr %36) #6
  call void @llvm.lifetime.start.p0(i64 4, ptr %37) #6
  %122 = load ptr, ptr %31, align 8, !tbaa !35
  %123 = getelementptr inbounds nuw %struct.tm, ptr %122, i32 0, i32 8
  %124 = load i32, ptr %123, align 8, !tbaa !37
  store i32 %124, ptr %37, align 4, !tbaa !9
  %125 = call ptr @gmtime_r(ptr noundef %28, ptr noundef %32) #6
  store ptr %125, ptr %31, align 8, !tbaa !35
  %126 = load i32, ptr %37, align 4, !tbaa !9
  %127 = load ptr, ptr %31, align 8, !tbaa !35
  %128 = getelementptr inbounds nuw %struct.tm, ptr %127, i32 0, i32 8
  store i32 %126, ptr %128, align 8, !tbaa !37
  %129 = load ptr, ptr %31, align 8, !tbaa !35
  %130 = call i64 @mktime(ptr noundef %129) #6
  store i64 %130, ptr %29, align 8, !tbaa !30
  %131 = load i64, ptr %29, align 8, !tbaa !30
  %132 = load i64, ptr %28, align 8, !tbaa !30
  %133 = sub nsw i64 %131, %132
  %134 = icmp sge i64 %133, 0
  br i1 %134, label %135, label %139

135:                                              ; preds = %121
  %136 = load i64, ptr %29, align 8, !tbaa !30
  %137 = load i64, ptr %28, align 8, !tbaa !30
  %138 = sub nsw i64 %136, %137
  br label %144

139:                                              ; preds = %121
  %140 = load i64, ptr %29, align 8, !tbaa !30
  %141 = load i64, ptr %28, align 8, !tbaa !30
  %142 = sub nsw i64 %140, %141
  %143 = sub nsw i64 0, %142
  br label %144

144:                                              ; preds = %139, %135
  %145 = phi i64 [ %138, %135 ], [ %143, %139 ]
  %146 = add nsw i64 %145, 30
  %147 = sdiv i64 %146, 60
  %148 = trunc i64 %147 to i32
  store i32 %148, ptr %36, align 4, !tbaa !9
  %149 = getelementptr inbounds [128 x i8], ptr %34, i64 0, i64 0
  %150 = load i64, ptr %29, align 8, !tbaa !30
  %151 = load i64, ptr %28, align 8, !tbaa !30
  %152 = icmp sle i64 %150, %151
  %153 = select i1 %152, i32 43, i32 45
  %154 = load i32, ptr %36, align 4, !tbaa !9
  %155 = sdiv i32 %154, 60
  %156 = load i32, ptr %36, align 4, !tbaa !9
  %157 = srem i32 %156, 60
  %158 = call i32 (ptr, i64, ptr, ...) @snprintf(ptr noundef %149, i64 noundef 128, ptr noundef @.str.39, i32 noundef %153, i32 noundef %155, i32 noundef %157) #6
  call void @llvm.lifetime.end.p0(i64 4, ptr %37) #6
  call void @llvm.lifetime.end.p0(i64 4, ptr %36) #6
  br label %159

159:                                              ; preds = %144, %116
  %160 = load ptr, ptr %15, align 8, !tbaa !4
  %161 = getelementptr inbounds [128 x i8], ptr %33, i64 0, i64 0
  %162 = load i32, ptr %30, align 4, !tbaa !9
  %163 = getelementptr inbounds [128 x i8], ptr %34, i64 0, i64 0
  %164 = call i32 (ptr, ptr, ...) @avio_printf(ptr noundef %160, ptr noundef @.str.40, ptr noundef %161, i32 noundef %162, ptr noundef %163)
  %165 = load double, ptr %18, align 8, !tbaa !31
  %166 = load ptr, ptr %24, align 8, !tbaa !33
  %167 = load double, ptr %166, align 8, !tbaa !31
  %168 = fadd nsz double %167, %165
  store double %168, ptr %166, align 8, !tbaa !31
  store i32 0, ptr %35, align 4
  br label %169

169:                                              ; preds = %159, %105
  call void @llvm.lifetime.end.p0(i64 128, ptr %34) #6
  call void @llvm.lifetime.end.p0(i64 128, ptr %33) #6
  call void @llvm.lifetime.end.p0(i64 56, ptr %32) #6
  call void @llvm.lifetime.end.p0(i64 8, ptr %31) #6
  call void @llvm.lifetime.end.p0(i64 4, ptr %30) #6
  call void @llvm.lifetime.end.p0(i64 8, ptr %29) #6
  call void @llvm.lifetime.end.p0(i64 8, ptr %28) #6
  %170 = load i32, ptr %35, align 4
  switch i32 %170, label %185 [
    i32 0, label %171
    i32 1, label %183
  ]

171:                                              ; preds = %169
  br label %172

172:                                              ; preds = %171, %84
  %173 = load ptr, ptr %22, align 8, !tbaa !11
  %174 = icmp ne ptr %173, null
  br i1 %174, label %175, label %179

175:                                              ; preds = %172
  %176 = load ptr, ptr %15, align 8, !tbaa !4
  %177 = load ptr, ptr %22, align 8, !tbaa !11
  %178 = call i32 (ptr, ptr, ...) @avio_printf(ptr noundef %176, ptr noundef @.str.41, ptr noundef %177)
  br label %179

179:                                              ; preds = %175, %172
  %180 = load ptr, ptr %15, align 8, !tbaa !4
  %181 = load ptr, ptr %23, align 8, !tbaa !11
  %182 = call i32 (ptr, ptr, ...) @avio_printf(ptr noundef %180, ptr noundef @.str.42, ptr noundef %181)
  store i32 0, ptr %14, align 4
  br label %183

183:                                              ; preds = %179, %169, %43
  %184 = load i32, ptr %14, align 4
  ret i32 %184

185:                                              ; preds = %169
  unreachable
}