; Function Attrs: nounwind uwtable
define range(i32 -1313558101, 1) i32 @ff_hls_write_file_entry(ptr noundef %0, i32 noundef %1, i32 noundef %2, double noundef %3, i32 noundef %4, i64 noundef %5, i64 noundef %6, ptr noundef %7, ptr noundef %8, ptr noundef captures(address_is_null) %9, i64 noundef %10, i64 noundef %11, i32 noundef %12) local_unnamed_addr #0 {
  %14 = alloca i64, align 8
  %15 = alloca %struct.tm, align 8
  %16 = alloca [128 x i8], align 16
  %17 = alloca [128 x i8], align 16
  %18 = icmp ne ptr %0, null
  %19 = icmp ne ptr %8, null
  %or.cond = and i1 %18, %19
  br i1 %or.cond, label %20, label %79

20:                                               ; preds = %13
  %.not = icmp eq i32 %1, 0
  br i1 %.not, label %23, label %21

21:                                               ; preds = %20
  %22 = tail call i32 (ptr, ptr, ...) @avio_printf(ptr noundef nonnull %0, ptr noundef nonnull @.str.32) #8
  br label %23

23:                                               ; preds = %21, %20
  %.not57 = icmp eq i32 %4, 0
  br i1 %.not57, label %27, label %24

24:                                               ; preds = %23
  %25 = tail call i64 @llvm.lrint.i64.f64(double %3)
  %26 = tail call i32 (ptr, ptr, ...) @avio_printf(ptr noundef nonnull %0, ptr noundef nonnull @.str.33, i64 noundef %25) #8
  br label %29

27:                                               ; preds = %23
  %28 = tail call i32 (ptr, ptr, ...) @avio_printf(ptr noundef nonnull %0, ptr noundef nonnull @.str.34, double noundef %3) #8
  br label %29

29:                                               ; preds = %27, %24
  %.not58 = icmp eq i32 %2, 0
  br i1 %.not58, label %34, label %30

30:                                               ; preds = %29
  %.not59 = icmp eq i32 %12, 0
  %31 = select i1 %.not59, i64 %5, i64 %10
  %32 = select i1 %.not59, i64 %6, i64 %11
  %33 = tail call i32 (ptr, ptr, ...) @avio_printf(ptr noundef nonnull %0, ptr noundef nonnull @.str.35, i64 noundef %31, i64 noundef %32) #8
  br label %34

34:                                               ; preds = %30, %29
  %.not60 = icmp eq ptr %9, null
  br i1 %.not60, label %74, label %35

35:                                               ; preds = %34
  call void @llvm.lifetime.start.p0(i64 8, ptr nonnull %14) #8
  call void @llvm.lifetime.start.p0(i64 56, ptr nonnull %15) #8
  call void @llvm.lifetime.start.p0(i64 128, ptr nonnull %16) #8
  call void @llvm.lifetime.start.p0(i64 128, ptr nonnull %17) #8
  %36 = load double, ptr %9, align 8, !tbaa !24
  %37 = fptosi double %36 to i64
  store i64 %37, ptr %14, align 8, !tbaa !26
  %38 = sitofp i64 %37 to double
  %39 = fsub nsz double %36, %38
  %40 = fmul nsz double %39, 1.000000e+03
  %41 = tail call i64 @llvm.lrint.i64.f64(double %40)
  %42 = trunc i64 %41 to i32
  %43 = tail call i32 @llvm.smax.i32(i32 %42, i32 0)
  %44 = tail call i32 @llvm.umin.i32(i32 %43, i32 999)
  %45 = call ptr @localtime_r(ptr noundef nonnull %14, ptr noundef nonnull %15) #8
  %46 = call i64 @strftime(ptr noundef nonnull %16, i64 noundef 128, ptr noundef nonnull @.str.36, ptr noundef %45) #8
  %.not61 = icmp eq i64 %46, 0
  br i1 %.not61, label %73, label %47

47:                                               ; preds = %35
  %48 = call i64 @strftime(ptr noundef nonnull %17, i64 noundef 128, ptr noundef nonnull @.str.38, ptr noundef %45) #8
  %49 = icmp eq i64 %48, 0
  %50 = getelementptr inbounds nuw i8, ptr %17, i64 1
  %51 = load i8, ptr %50, align 1
  %52 = add i8 %51, -51
  %53 = icmp ult i8 %52, -3
  %or.cond9 = select i1 %49, i1 true, i1 %53
  br i1 %or.cond9, label %54, label %.thread

54:                                               ; preds = %47
  %55 = getelementptr inbounds nuw i8, ptr %45, i64 32
  %56 = load i32, ptr %55, align 8, !tbaa !27
  %57 = call ptr @gmtime_r(ptr noundef nonnull %14, ptr noundef nonnull %15) #8
  %58 = getelementptr inbounds nuw i8, ptr %57, i64 32
  store i32 %56, ptr %58, align 8, !tbaa !27
  %59 = call i64 @mktime(ptr noundef %57) #8
  %60 = load i64, ptr %14, align 8, !tbaa !26
  %61 = sub nsw i64 %59, %60
  %62 = call i64 @llvm.abs.i64(i64 %61, i1 true)
  %63 = add nuw nsw i64 %62, 30
  %64 = udiv i64 %63, 60
  %65 = trunc i64 %64 to i32
  %.not62 = icmp sgt i64 %59, %60
  %66 = select i1 %.not62, i32 45, i32 43
  %67 = sdiv i32 %65, 60
  %68 = srem i32 %65, 60
  %69 = call i32 (ptr, i64, ptr, ...) @snprintf(ptr noundef nonnull dereferenceable(1) %17, i64 noundef 128, ptr noundef nonnull @.str.39, i32 noundef %66, i32 noundef %67, i32 noundef %68) #8
  br label %.thread

.thread:                                          ; preds = %54, %47
  %70 = call i32 (ptr, ptr, ...) @avio_printf(ptr noundef nonnull %0, ptr noundef nonnull @.str.40, ptr noundef nonnull %16, i32 noundef %44, ptr noundef nonnull %17) #8
  %71 = load double, ptr %9, align 8, !tbaa !24
  %72 = fadd nsz double %3, %71
  store double %72, ptr %9, align 8, !tbaa !24
  call void @llvm.lifetime.end.p0(i64 128, ptr nonnull %17) #8
  call void @llvm.lifetime.end.p0(i64 128, ptr nonnull %16) #8
  call void @llvm.lifetime.end.p0(i64 56, ptr nonnull %15) #8
  call void @llvm.lifetime.end.p0(i64 8, ptr nonnull %14) #8
  br label %74

73:                                               ; preds = %35
  call void (ptr, i32, ptr, ...) @av_log(ptr noundef null, i32 noundef 48, ptr noundef nonnull @.str.37) #8
  call void @llvm.lifetime.end.p0(i64 128, ptr nonnull %17) #8
  call void @llvm.lifetime.end.p0(i64 128, ptr nonnull %16) #8
  call void @llvm.lifetime.end.p0(i64 56, ptr nonnull %15) #8
  call void @llvm.lifetime.end.p0(i64 8, ptr nonnull %14) #8
  br label %79

74:                                               ; preds = %.thread, %34
  %.not63 = icmp eq ptr %7, null
  br i1 %.not63, label %77, label %75

75:                                               ; preds = %74
  %76 = call i32 (ptr, ptr, ...) @avio_printf(ptr noundef nonnull %0, ptr noundef nonnull @.str.41, ptr noundef nonnull %7) #8
  br label %77

77:                                               ; preds = %75, %74
  %78 = call i32 (ptr, ptr, ...) @avio_printf(ptr noundef nonnull %0, ptr noundef nonnull @.str.42, ptr noundef nonnull %8) #8
  br label %79

79:                                               ; preds = %73, %13, %77
  %.0 = phi i32 [ -1313558101, %73 ], [ 0, %77 ], [ -22, %13 ]
  ret i32 %.0
}